target datalayout = "e-m:e-p270:32:32-p271:32:32-p272:64:64-i64:64-i128:128-f80:128-n8:16:32:64-S128"
target triple = "x86_64-pc-linux-gnu"

%class.anon.1010 = type { i8 }

; Function Attrs: mustprogress uwtable
define internal noundef ptr @_ZZN8pybind116detail16type_caster_baseIN12_GLOBAL__N_112SharedPtrRef1AEE21make_copy_constructorIS4_vEEDTcmnw_T_piclsr3stdE7declvalIKS7_EEEtlPFPvPKvEEEPS8_ENKUlSB_E_clESB_(ptr noundef nonnull align 1 dereferenceable(1) %0, ptr noundef %1) #1 align 2 personality ptr @__gxx_personality_v0 {
  %3 = alloca ptr, align 8
  %4 = alloca ptr, align 8
  %5 = alloca ptr, align 8
  %6 = alloca i32, align 4
  store ptr %0, ptr %3, align 8
  store ptr %1, ptr %4, align 8
  %7 = call noalias noundef nonnull ptr @_Znwm(i64 noundef 1) #22
  %8 = load ptr, ptr %4, align 8
  invoke void @_ZN12_GLOBAL__N_112SharedPtrRef1AC2ERKS1_(ptr noundef nonnull align 1 dereferenceable(1) %7, ptr noundef nonnull align 1 dereferenceable(1) %8)
          to label %9 unwind label %10

9:                                                ; preds = %2
  ret ptr %7

10:                                               ; preds = %2
  %11 = landingpad { ptr, i32 }
          cleanup
  %12 = extractvalue { ptr, i32 } %11, 0
  store ptr %12, ptr %5, align 8
  %13 = extractvalue { ptr, i32 } %11, 1
  store i32 %13, ptr %6, align 4
  call void @_ZdlPv(ptr noundef %7) #24
  br label %14

14:                                               ; preds = %10
  %15 = load ptr, ptr %5, align 8
  %16 = load i32, ptr %6, align 4
  %17 = insertvalue { ptr, i32 } poison, ptr %15, 0
  %18 = insertvalue { ptr, i32 } %17, i32 %16, 1
  resume { ptr, i32 } %18
}

; Function Attrs: mustprogress uwtable
define internal noundef ptr @_ZZN8pybind116detail16type_caster_baseIN12_GLOBAL__N_112SharedPtrRef1AEE21make_copy_constructorIS4_vEEDTcmnw_T_piclsr3stdE7declvalIKS7_EEEtlPFPvPKvEEEPS8_ENUlSB_E_8__invokeESB_(ptr noundef %0) #1 align 2 {
  %2 = alloca ptr, align 8
  %3 = alloca %class.anon.1010, align 1
  store ptr %0, ptr %2, align 8
  %4 = load ptr, ptr %2, align 8
  %5 = call noundef ptr @_ZZN8pybind116detail16type_caster_baseIN12_GLOBAL__N_112SharedPtrRef1AEE21make_copy_constructorIS4_vEEDTcmnw_T_piclsr3stdE7declvalIKS7_EEEtlPFPvPKvEEEPS8_ENKUlSB_E_clESB_(ptr noundef nonnull align 1 dereferenceable(1) %3, ptr noundef %4)
  ret ptr %5
}