; Function Attrs: mustprogress uwtable
define internal noundef nonnull ptr @_ZZN8pybind116detail16type_caster_baseIN12_GLOBAL__N_112SharedPtrRef1AEE21make_copy_constructorIS4_vEEDTcmnw_T_piclsr3stdE7declvalIKS7_EEEtlPFPvPKvEEEPS8_ENUlSB_E_8__invokeESB_(ptr nocapture readnone %0) #1 align 2 personality ptr @__gxx_personality_v0 {
  %2 = tail call noalias noundef nonnull dereferenceable(1) ptr @_Znwm(i64 noundef 1) #32
  invoke fastcc void @_ZN12_GLOBAL__N_112SharedPtrRef1AC2ERKS1_(ptr noundef nonnull align 1 dereferenceable(1) %2)
          to label %_ZZN8pybind116detail16type_caster_baseIN12_GLOBAL__N_112SharedPtrRef1AEE21make_copy_constructorIS4_vEEDTcmnw_T_piclsr3stdE7declvalIKS7_EEEtlPFPvPKvEEEPS8_ENKUlSB_E_clESB_.exit unwind label %3

3:                                                ; preds = %1
  %4 = landingpad { ptr, i32 }
          cleanup
  tail call void @_ZdlPv(ptr noundef nonnull %2) #33
  resume { ptr, i32 } %4

_ZZN8pybind116detail16type_caster_baseIN12_GLOBAL__N_112SharedPtrRef1AEE21make_copy_constructorIS4_vEEDTcmnw_T_piclsr3stdE7declvalIKS7_EEEtlPFPvPKvEEEPS8_ENKUlSB_E_clESB_.exit: ; preds = %1
  ret ptr %2
}